; Function Attrs: nounwind uwtable
define internal ptr @dequeiter_next(ptr noundef captures(none) %0) #0 {
  %2 = getelementptr inbounds nuw i8, ptr %0, i64 32
  %3 = load ptr, ptr %2, align 8, !tbaa !62
  %4 = getelementptr inbounds nuw i8, ptr %3, i64 56
  %5 = load i64, ptr %4, align 8, !tbaa !53
  %6 = getelementptr inbounds nuw i8, ptr %0, i64 40
  %7 = load i64, ptr %6, align 8, !tbaa !63
  %.not.i = icmp eq i64 %5, %7
  %8 = getelementptr inbounds nuw i8, ptr %0, i64 48
  br i1 %.not.i, label %11, label %9

9:                                                ; preds = %1
  store i64 0, ptr %8, align 8, !tbaa !64
  %10 = load ptr, ptr @PyExc_RuntimeError, align 8, !tbaa !21
  tail call void @PyErr_SetString(ptr noundef %10, ptr noundef nonnull @.str.39) #9
  br label %dequeiter_next_lock_held.exit

11:                                               ; preds = %1
  %12 = load i64, ptr %8, align 8, !tbaa !64
  %13 = icmp eq i64 %12, 0
  br i1 %13, label %dequeiter_next_lock_held.exit, label %14

14:                                               ; preds = %11
  %15 = getelementptr inbounds nuw i8, ptr %0, i64 16
  %16 = load ptr, ptr %15, align 8, !tbaa !58
  %17 = getelementptr inbounds nuw i8, ptr %16, i64 8
  %18 = getelementptr inbounds nuw i8, ptr %0, i64 24
  %19 = load i64, ptr %18, align 8, !tbaa !61
  %20 = getelementptr [64 x ptr], ptr %17, i64 0, i64 %19
  %21 = load ptr, ptr %20, align 8, !tbaa !21
  %22 = add i64 %19, 1
  store i64 %22, ptr %18, align 8, !tbaa !61
  %23 = add i64 %12, -1
  store i64 %23, ptr %8, align 8, !tbaa !64
  %24 = icmp eq i64 %22, 64
  %25 = icmp sgt i64 %23, 0
  %or.cond.i = and i1 %25, %24
  br i1 %or.cond.i, label %26, label %29

26:                                               ; preds = %14
  %27 = getelementptr inbounds nuw i8, ptr %16, i64 520
  %28 = load ptr, ptr %27, align 8, !tbaa !54
  store ptr %28, ptr %15, align 8, !tbaa !58
  store i64 0, ptr %18, align 8, !tbaa !61
  br label %29

29:                                               ; preds = %26, %14
  %30 = load i32, ptr %21, align 8, !tbaa !20
  %31 = icmp slt i32 %30, 0
  br i1 %31, label %dequeiter_next_lock_held.exit, label %32

32:                                               ; preds = %29
  %33 = add nuw i32 %30, 1
  store i32 %33, ptr %21, align 8, !tbaa !20
  br label %dequeiter_next_lock_held.exit

dequeiter_next_lock_held.exit:                    ; preds = %9, %11, %29, %32
  %.0.i = phi ptr [ null, %9 ], [ null, %11 ], [ %21, %29 ], [ %21, %32 ]
  ret ptr %.0.i
}